; Function Attrs: nounwind uwtable
define internal fastcc void @writeEdgeName(ptr noundef nonnull %0, ptr noundef %1) unnamed_addr #0 {
  %3 = tail call ptr @agnameof(ptr noundef nonnull %0) #21
  %4 = icmp eq ptr %3, null
  br i1 %4, label %23, label %5

5:                                                ; preds = %2
  %6 = load i8, ptr %3, align 1, !tbaa !24
  %7 = icmp eq i8 %6, 0
  br i1 %7, label %23, label %8

8:                                                ; preds = %5
  %9 = load i32, ptr @Level, align 4, !tbaa !20
  %.not1.i = icmp eq i32 %9, 0
  br i1 %.not1.i, label %tabover.exit, label %.lr.ph.i

.lr.ph.i:                                         ; preds = %8, %.lr.ph.i
  %.02.i = phi i32 [ %10, %.lr.ph.i ], [ %9, %8 ]
  %10 = add nsw i32 %.02.i, -1
  %11 = tail call i32 @putc(i32 noundef 9, ptr noundef %1)
  %.not.i = icmp eq i32 %10, 0
  br i1 %.not.i, label %tabover.exit, label %.lr.ph.i, !llvm.loop !22

tabover.exit:                                     ; preds = %.lr.ph.i, %8
  %12 = tail call i64 @fwrite(ptr nonnull @.str.51, i64 19, i64 1, ptr %1)
  %13 = load i32, ptr @Level, align 4, !tbaa !20
  %.not1.i12 = icmp eq i32 %13, 0
  br i1 %.not1.i12, label %tabover.exit16, label %.lr.ph.i13

.lr.ph.i13:                                       ; preds = %tabover.exit, %.lr.ph.i13
  %.02.i14 = phi i32 [ %14, %.lr.ph.i13 ], [ %13, %tabover.exit ]
  %14 = add nsw i32 %.02.i14, -1
  %15 = tail call i32 @putc(i32 noundef 9, ptr noundef %1)
  %.not.i15 = icmp eq i32 %14, 0
  br i1 %.not.i15, label %tabover.exit16, label %.lr.ph.i13, !llvm.loop !22

tabover.exit16:                                   ; preds = %.lr.ph.i13, %tabover.exit
  %16 = tail call i64 @fwrite(ptr nonnull @.str.20, i64 10, i64 1, ptr %1)
  %17 = tail call i32 @xml_escape(ptr noundef nonnull %3, i32 6, ptr noundef nonnull @put, ptr noundef %1) #21
  %18 = tail call i64 @fwrite(ptr nonnull @.str.21, i64 10, i64 1, ptr %1)
  %19 = load i32, ptr @Level, align 4, !tbaa !20
  %.not1.i17 = icmp eq i32 %19, 0
  br i1 %.not1.i17, label %tabover.exit21, label %.lr.ph.i18

.lr.ph.i18:                                       ; preds = %tabover.exit16, %.lr.ph.i18
  %.02.i19 = phi i32 [ %20, %.lr.ph.i18 ], [ %19, %tabover.exit16 ]
  %20 = add nsw i32 %.02.i19, -1
  %21 = tail call i32 @putc(i32 noundef 9, ptr noundef %1)
  %.not.i20 = icmp eq i32 %20, 0
  br i1 %.not.i20, label %tabover.exit21, label %.lr.ph.i18, !llvm.loop !22

tabover.exit21:                                   ; preds = %.lr.ph.i18, %tabover.exit16
  %22 = tail call i64 @fwrite(ptr nonnull @.str.22, i64 9, i64 1, ptr %1)
  br label %23

23:                                               ; preds = %tabover.exit21, %5, %2
  ret void
}